; Function Attrs: mustprogress nofree norecurse nounwind willreturn memory(argmem: readwrite, inaccessiblemem: readwrite) uwtable
define hidden noundef i64 @_ZNK14ZPageAllocator6unusedEv(ptr noundef nonnull align 8 dereferenceable(609) %0) local_unnamed_addr #5 align 2 {
  %2 = getelementptr inbounds i8, ptr %0, i64 424
  %3 = load volatile i64, ptr %2, align 8
  %4 = getelementptr inbounds i8, ptr %0, i64 440
  %5 = load volatile i64, ptr %4, align 8
  %6 = getelementptr inbounds i8, ptr %0, i64 432
  %7 = load volatile i64, ptr %6, align 8
  %8 = add i64 %5, %7
  %9 = sub i64 %3, %8
  %10 = tail call i64 @llvm.smax.i64(i64 %9, i64 0)
  ret i64 %10
}